target datalayout = "e-m:e-p270:32:32-p271:32:32-p272:64:64-i64:64-i128:128-f80:128-n8:16:32:64-S128"
target triple = "x86_64-pc-linux-gnu"

%struct.process_sublinks_context = type { ptr, i8 }

; Function Attrs: nounwind uwtable
define dso_local ptr @SS_process_sublinks(ptr noundef %0, ptr noundef %1, i1 noundef zeroext %2) #0 {
  %4 = alloca ptr, align 8
  %5 = alloca ptr, align 8
  %6 = alloca i8, align 1
  %7 = alloca %struct.process_sublinks_context, align 8
  store ptr %0, ptr %4, align 8
  store ptr %1, ptr %5, align 8
  %8 = zext i1 %2 to i8
  store i8 %8, ptr %6, align 1
  call void @llvm.lifetime.start.p0(i64 16, ptr %7) #8
  %9 = load ptr, ptr %4, align 8
  %10 = getelementptr inbounds nuw %struct.process_sublinks_context, ptr %7, i32 0, i32 0
  store ptr %9, ptr %10, align 8
  %11 = load i8, ptr %6, align 1, !range !4, !noundef !5
  %12 = trunc i8 %11 to i1
  %13 = getelementptr inbounds nuw %struct.process_sublinks_context, ptr %7, i32 0, i32 1
  %14 = zext i1 %12 to i8
  store i8 %14, ptr %13, align 8
  %15 = load ptr, ptr %5, align 8
  %16 = call ptr @process_sublinks_mutator(ptr noundef %15, ptr noundef %7)
  call void @llvm.lifetime.end.p0(i64 16, ptr %7) #8
  ret ptr %16
}