; Function Attrs: nounwind uwtable
define dso_local ptr @SS_process_sublinks(ptr noundef %0, ptr noundef %1, i1 noundef zeroext %2) local_unnamed_addr #0 {
  %4 = alloca %struct.process_sublinks_context, align 8
  %5 = zext i1 %2 to i8
  call void @llvm.lifetime.start.p0(i64 16, ptr nonnull %4) #10
  store ptr %0, ptr %4, align 8
  %6 = getelementptr inbounds nuw i8, ptr %4, i64 8
  store i8 %5, ptr %6, align 8
  %7 = call ptr @process_sublinks_mutator(ptr noundef %1, ptr noundef nonnull %4)
  call void @llvm.lifetime.end.p0(i64 16, ptr nonnull %4) #10
  ret ptr %7
}